target datalayout = "e-m:e-p270:32:32-p271:32:32-p272:64:64-i64:64-i128:128-f80:128-n8:16:32:64-S128"
target triple = "x86_64-unknown-linux-gnu"

; Function Attrs: nounwind uwtable
define internal signext i8 @othercase(i32 noundef %ch) #0 {
entry:
  %retval = alloca i8, align 1
  %ch.addr = alloca i32, align 4
  store i32 %ch, ptr %ch.addr, align 4
  %0 = load i32, ptr %ch.addr, align 4
  %conv = trunc i32 %0 to i8
  %conv1 = zext i8 %conv to i32
  store i32 %conv1, ptr %ch.addr, align 4
  %call = call ptr @__ctype_b_loc() #15
  %1 = load ptr, ptr %call, align 8
  %2 = load i32, ptr %ch.addr, align 4
  %idxprom = sext i32 %2 to i64
  %arrayidx = getelementptr inbounds i16, ptr %1, i64 %idxprom
  %3 = load i16, ptr %arrayidx, align 2
  %conv2 = zext i16 %3 to i32
  %and = and i32 %conv2, 256
  %tobool = icmp ne i32 %and, 0
  br i1 %tobool, label %if.then, label %if.else

if.then:                                          ; preds = %entry
  %4 = load i32, ptr %ch.addr, align 4
  %call3 = call i32 @tolower(i32 noundef %4) #10
  %conv4 = trunc i32 %call3 to i8
  store i8 %conv4, ptr %retval, align 1
  br label %return

if.else:                                          ; preds = %entry
  %call5 = call ptr @__ctype_b_loc() #15
  %5 = load ptr, ptr %call5, align 8
  %6 = load i32, ptr %ch.addr, align 4
  %idxprom6 = sext i32 %6 to i64
  %arrayidx7 = getelementptr inbounds i16, ptr %5, i64 %idxprom6
  %7 = load i16, ptr %arrayidx7, align 2
  %conv8 = zext i16 %7 to i32
  %and9 = and i32 %conv8, 512
  %tobool10 = icmp ne i32 %and9, 0
  br i1 %tobool10, label %if.then11, label %if.else14

if.then11:                                        ; preds = %if.else
  %8 = load i32, ptr %ch.addr, align 4
  %call12 = call i32 @toupper(i32 noundef %8) #10
  %conv13 = trunc i32 %call12 to i8
  store i8 %conv13, ptr %retval, align 1
  br label %return

if.else14:                                        ; preds = %if.else
  %9 = load i32, ptr %ch.addr, align 4
  %conv15 = trunc i32 %9 to i8
  store i8 %conv15, ptr %retval, align 1
  br label %return

return:                                           ; preds = %if.else14, %if.then11, %if.then
  %10 = load i8, ptr %retval, align 1
  ret i8 %10
}