; Function Attrs: mustprogress nofree nounwind willreturn memory(read) uwtable
define internal fastcc signext i8 @othercase(i32 noundef %ch) unnamed_addr #8 {
entry:
  %conv1 = and i32 %ch, 255
  %call = tail call ptr @__ctype_b_loc() #20
  %0 = load ptr, ptr %call, align 8
  %idxprom = zext nneg i32 %conv1 to i64
  %arrayidx = getelementptr inbounds nuw i16, ptr %0, i64 %idxprom
  %1 = load i16, ptr %arrayidx, align 2
  %conv2 = zext i16 %1 to i32
  %and = and i32 %conv2, 256
  %tobool.not = icmp eq i32 %and, 0
  br i1 %tobool.not, label %if.else, label %if.then

if.then:                                          ; preds = %entry
  %call3 = tail call i32 @tolower(i32 noundef %conv1) #15
  br label %return

if.else:                                          ; preds = %entry
  %and9 = and i32 %conv2, 512
  %tobool10.not = icmp eq i32 %and9, 0
  br i1 %tobool10.not, label %return, label %if.then11

if.then11:                                        ; preds = %if.else
  %call12 = tail call i32 @toupper(i32 noundef %conv1) #15
  br label %return

return:                                           ; preds = %if.else, %if.then11, %if.then
  %retval.0.in = phi i32 [ %call3, %if.then ], [ %call12, %if.then11 ], [ %ch, %if.else ]
  %retval.0 = trunc i32 %retval.0.in to i8
  ret i8 %retval.0
}